; Function Attrs: null_pointer_is_valid sspstrong uwtable
define internal i32 @netdfs_dissect_dfs_AddStdRoot_request(ptr noundef %0, i32 noundef %1, ptr noundef %2, ptr noundef %3, ptr noundef initializes((72, 80)) %4, ptr noundef %5) #0 {
  %7 = alloca ptr, align 8
  %8 = alloca ptr, align 8
  %9 = alloca ptr, align 8
  %10 = getelementptr inbounds nuw i8, ptr %4, i64 72
  store ptr @.str.323, ptr %10, align 8
  call void @llvm.lifetime.start.p0(i64 8, ptr nonnull %9) #4
  %11 = load i32, ptr @hf_netdfs_dfs_AddStdRoot_servername, align 4
  %12 = call i32 @dissect_ndr_cvstring(ptr noundef %0, i32 noundef %1, ptr noundef %2, ptr noundef %3, ptr noundef %4, ptr noundef %5, i32 noundef 2, i32 noundef %11, i1 noundef zeroext false, ptr noundef nonnull %9)
  %13 = load ptr, ptr %9, align 8
  call void (ptr, ptr, ...) @proto_item_append_text(ptr noundef %3, ptr noundef nonnull @.str.261, ptr noundef %13)
  call void @llvm.lifetime.end.p0(i64 8, ptr nonnull %9) #4
  %14 = call i32 @dissect_deferred_pointers(ptr noundef %2, ptr noundef %0, i32 noundef %12, ptr noundef %4, ptr noundef %5)
  call void @llvm.lifetime.start.p0(i64 8, ptr nonnull %8) #4
  %15 = load i32, ptr @hf_netdfs_dfs_AddStdRoot_rootshare, align 4
  %16 = call i32 @dissect_ndr_cvstring(ptr noundef %0, i32 noundef %14, ptr noundef %2, ptr noundef %3, ptr noundef %4, ptr noundef %5, i32 noundef 2, i32 noundef %15, i1 noundef zeroext false, ptr noundef nonnull %8)
  %17 = load ptr, ptr %8, align 8
  call void (ptr, ptr, ...) @proto_item_append_text(ptr noundef %3, ptr noundef nonnull @.str.261, ptr noundef %17)
  call void @llvm.lifetime.end.p0(i64 8, ptr nonnull %8) #4
  %18 = call i32 @dissect_deferred_pointers(ptr noundef %2, ptr noundef %0, i32 noundef %16, ptr noundef %4, ptr noundef %5)
  call void @llvm.lifetime.start.p0(i64 8, ptr nonnull %7) #4
  %19 = load i32, ptr @hf_netdfs_dfs_AddStdRoot_comment, align 4
  %20 = call i32 @dissect_ndr_cvstring(ptr noundef %0, i32 noundef %18, ptr noundef %2, ptr noundef %3, ptr noundef %4, ptr noundef %5, i32 noundef 2, i32 noundef %19, i1 noundef zeroext false, ptr noundef nonnull %7)
  %21 = load ptr, ptr %7, align 8
  call void (ptr, ptr, ...) @proto_item_append_text(ptr noundef %3, ptr noundef nonnull @.str.261, ptr noundef %21)
  call void @llvm.lifetime.end.p0(i64 8, ptr nonnull %7) #4
  %22 = call i32 @dissect_deferred_pointers(ptr noundef %2, ptr noundef %0, i32 noundef %20, ptr noundef %4, ptr noundef %5)
  %23 = load i32, ptr @hf_netdfs_dfs_AddStdRoot_flags, align 4
  %24 = call i32 @PIDL_dissect_uint32(ptr noundef %0, i32 noundef %22, ptr noundef %2, ptr noundef %3, ptr noundef %4, ptr noundef %5, i32 noundef %23, i32 noundef 0)
  %25 = call i32 @dissect_deferred_pointers(ptr noundef %2, ptr noundef %0, i32 noundef %24, ptr noundef %4, ptr noundef %5)
  ret i32 %25
}